target datalayout = "e-m:e-p270:32:32-p271:32:32-p272:64:64-i64:64-i128:128-f80:128-n8:16:32:64-S128"
target triple = "x86_64-pc-linux-gnu"

%"class.pxrInternal_v0_24__pxrReserved__::VtDictionary" = type { %"class.std::unique_ptr" }
%"class.std::unique_ptr" = type { %"struct.std::__uniq_ptr_data" }
%"struct.std::__uniq_ptr_data" = type { %"class.std::__uniq_ptr_impl" }
%"class.std::__uniq_ptr_impl" = type { %"class.std::tuple" }
%"class.std::tuple" = type { %"struct.std::_Tuple_impl" }
%"struct.std::_Tuple_impl" = type { %"struct.std::_Head_base.11" }
%"struct.std::_Head_base.11" = type { ptr }

; Function Attrs: mustprogress uwtable
define noundef ptr @_ZN32pxrInternal_v0_24__pxrReserved__15HioGlslfxConfig4ReadERKNS_7TfTokenERKNSt7__cxx1112basic_stringIcSt11char_traitsIcESaIcEEESB_PS9_(ptr noundef nonnull align 8 dereferenceable(8) %0, ptr noundef nonnull align 8 dereferenceable(32) %1, ptr noundef nonnull align 8 dereferenceable(32) %2, ptr noundef %3) #0 align 2 personality ptr @__gxx_personality_v0 {
  %5 = alloca ptr, align 8
  %6 = alloca ptr, align 8
  %7 = alloca ptr, align 8
  %8 = alloca ptr, align 8
  %9 = alloca %"class.pxrInternal_v0_24__pxrReserved__::VtDictionary", align 8
  %10 = alloca ptr, align 8
  %11 = alloca i32, align 4
  %12 = alloca i1, align 1
  store ptr %0, ptr %5, align 8
  store ptr %1, ptr %6, align 8
  store ptr %2, ptr %7, align 8
  store ptr %3, ptr %8, align 8
  %13 = call noalias noundef nonnull ptr @_Znwm(i64 noundef 136) #14
  store i1 true, ptr %12, align 1
  %14 = load ptr, ptr %5, align 8
  %15 = load ptr, ptr %6, align 8
  %16 = load ptr, ptr %7, align 8
  %17 = load ptr, ptr %8, align 8
  invoke void @_ZN32pxrInternal_v0_24__pxrReserved__26Hio_GetDictionaryFromInputERKNSt7__cxx1112basic_stringIcSt11char_traitsIcESaIcEEES7_PS5_(ptr dead_on_unwind writable sret(%"class.pxrInternal_v0_24__pxrReserved__::VtDictionary") align 8 %9, ptr noundef nonnull align 8 dereferenceable(32) %15, ptr noundef nonnull align 8 dereferenceable(32) %16, ptr noundef %17)
          to label %18 unwind label %21

18:                                               ; preds = %4
  %19 = load ptr, ptr %8, align 8
  invoke void @_ZN32pxrInternal_v0_24__pxrReserved__15HioGlslfxConfigC1ERKNS_7TfTokenERKNS_12VtDictionaryEPNSt7__cxx1112basic_stringIcSt11char_traitsIcESaIcEEE(ptr noundef nonnull align 8 dereferenceable(136) %13, ptr noundef nonnull align 8 dereferenceable(8) %14, ptr noundef nonnull align 8 dereferenceable(8) %9, ptr noundef %19)
          to label %20 unwind label %25

20:                                               ; preds = %18
  store i1 false, ptr %12, align 1
  call void @_ZN32pxrInternal_v0_24__pxrReserved__12VtDictionaryD2Ev(ptr noundef nonnull align 8 dereferenceable(8) %9) #7
  ret ptr %13

21:                                               ; preds = %4
  %22 = landingpad { ptr, i32 }
          cleanup
  %23 = extractvalue { ptr, i32 } %22, 0
  store ptr %23, ptr %10, align 8
  %24 = extractvalue { ptr, i32 } %22, 1
  store i32 %24, ptr %11, align 4
  br label %29

25:                                               ; preds = %18
  %26 = landingpad { ptr, i32 }
          cleanup
  %27 = extractvalue { ptr, i32 } %26, 0
  store ptr %27, ptr %10, align 8
  %28 = extractvalue { ptr, i32 } %26, 1
  store i32 %28, ptr %11, align 4
  call void @_ZN32pxrInternal_v0_24__pxrReserved__12VtDictionaryD2Ev(ptr noundef nonnull align 8 dereferenceable(8) %9) #7
  br label %29

29:                                               ; preds = %25, %21
  %30 = load i1, ptr %12, align 1
  br i1 %30, label %31, label %32

31:                                               ; preds = %29
  call void @_ZdlPvm(ptr noundef %13, i64 noundef 136) #15
  br label %32

32:                                               ; preds = %31, %29
  br label %33

33:                                               ; preds = %32
  %34 = load ptr, ptr %10, align 8
  %35 = load i32, ptr %11, align 4
  %36 = insertvalue { ptr, i32 } poison, ptr %34, 0
  %37 = insertvalue { ptr, i32 } %36, i32 %35, 1
  resume { ptr, i32 } %37
}