; Function Attrs: mustprogress uwtable
define noundef nonnull ptr @_ZN32pxrInternal_v0_24__pxrReserved__15HioGlslfxConfig4ReadERKNS_7TfTokenERKNSt7__cxx1112basic_stringIcSt11char_traitsIcESaIcEEESB_PS9_(ptr noundef nonnull align 8 dereferenceable(8) %0, ptr noundef nonnull align 8 dereferenceable(32) %1, ptr noundef nonnull align 8 dereferenceable(32) %2, ptr noundef %3) local_unnamed_addr #0 align 2 personality ptr @__gxx_personality_v0 {
  %5 = alloca %"class.pxrInternal_v0_24__pxrReserved__::VtDictionary", align 8
  %6 = tail call noalias noundef nonnull dereferenceable(136) ptr @_Znwm(i64 noundef 136) #21
  invoke void @_ZN32pxrInternal_v0_24__pxrReserved__26Hio_GetDictionaryFromInputERKNSt7__cxx1112basic_stringIcSt11char_traitsIcESaIcEEES7_PS5_(ptr dead_on_unwind nonnull writable sret(%"class.pxrInternal_v0_24__pxrReserved__::VtDictionary") align 8 %5, ptr noundef nonnull align 8 dereferenceable(32) %1, ptr noundef nonnull align 8 dereferenceable(32) %2, ptr noundef %3)
          to label %7 unwind label %16

7:                                                ; preds = %4
  invoke void @_ZN32pxrInternal_v0_24__pxrReserved__15HioGlslfxConfigC1ERKNS_7TfTokenERKNS_12VtDictionaryEPNSt7__cxx1112basic_stringIcSt11char_traitsIcESaIcEEE(ptr noundef nonnull align 8 dereferenceable(136) %6, ptr noundef nonnull align 8 dereferenceable(8) %0, ptr noundef nonnull align 8 dereferenceable(8) %5, ptr noundef %3)
          to label %8 unwind label %18

8:                                                ; preds = %7
  %9 = load ptr, ptr %5, align 8
  %.not.i.i = icmp eq ptr %9, null
  br i1 %.not.i.i, label %_ZN32pxrInternal_v0_24__pxrReserved__12VtDictionaryD2Ev.exit, label %10

10:                                               ; preds = %8
  %11 = getelementptr inbounds nuw i8, ptr %9, i64 16
  %12 = load ptr, ptr %11, align 8
  invoke void @_ZNSt8_Rb_treeINSt7__cxx1112basic_stringIcSt11char_traitsIcESaIcEEESt4pairIKS5_N32pxrInternal_v0_24__pxrReserved__7VtValueEESt10_Select1stISA_ESt4lessIvESaISA_EE8_M_eraseEPSt13_Rb_tree_nodeISA_E(ptr noundef nonnull align 8 dereferenceable(48) %9, ptr noundef %12)
          to label %_ZNKSt14default_deleteISt3mapINSt7__cxx1112basic_stringIcSt11char_traitsIcESaIcEEEN32pxrInternal_v0_24__pxrReserved__7VtValueESt4lessIvESaISt4pairIKS6_S8_EEEEclEPSF_.exit.i.i unwind label %13

13:                                               ; preds = %10
  %14 = landingpad { ptr, i32 }
          catch ptr null
  %15 = extractvalue { ptr, i32 } %14, 0
  call void @__clang_call_terminate(ptr %15) #22
  unreachable

_ZNKSt14default_deleteISt3mapINSt7__cxx1112basic_stringIcSt11char_traitsIcESaIcEEEN32pxrInternal_v0_24__pxrReserved__7VtValueESt4lessIvESaISt4pairIKS6_S8_EEEEclEPSF_.exit.i.i: ; preds = %10
  call void @_ZdlPvm(ptr noundef nonnull %9, i64 noundef 48) #23
  br label %_ZN32pxrInternal_v0_24__pxrReserved__12VtDictionaryD2Ev.exit

_ZN32pxrInternal_v0_24__pxrReserved__12VtDictionaryD2Ev.exit: ; preds = %8, %_ZNKSt14default_deleteISt3mapINSt7__cxx1112basic_stringIcSt11char_traitsIcESaIcEEEN32pxrInternal_v0_24__pxrReserved__7VtValueESt4lessIvESaISt4pairIKS6_S8_EEEEclEPSF_.exit.i.i
  ret ptr %6

16:                                               ; preds = %4
  %17 = landingpad { ptr, i32 }
          cleanup
  br label %20

18:                                               ; preds = %7
  %19 = landingpad { ptr, i32 }
          cleanup
  call void @_ZN32pxrInternal_v0_24__pxrReserved__12VtDictionaryD2Ev(ptr noundef nonnull align 8 dereferenceable(8) %5) #24
  br label %20

20:                                               ; preds = %16, %18
  %.pn = phi { ptr, i32 } [ %19, %18 ], [ %17, %16 ]
  call void @_ZdlPvm(ptr noundef nonnull %6, i64 noundef 136) #23
  resume { ptr, i32 } %.pn
}